; Function Attrs: nounwind uwtable
define internal i32 @tcp_write(ptr noundef %0, ptr noundef %1, i32 noundef %2) #0 {
  %4 = getelementptr inbounds nuw i8, ptr %0, i64 16
  %5 = load ptr, ptr %4, align 8, !tbaa !8
  %6 = getelementptr inbounds nuw i8, ptr %0, i64 32
  %7 = load i32, ptr %6, align 8, !tbaa !47
  %8 = and i32 %7, 8
  %.not = icmp eq i32 %8, 0
  br i1 %.not, label %9, label %16

9:                                                ; preds = %3
  %10 = getelementptr inbounds nuw i8, ptr %5, i64 8
  %11 = load i32, ptr %10, align 8, !tbaa !45
  %12 = getelementptr inbounds nuw i8, ptr %0, i64 64
  %13 = load i64, ptr %12, align 8, !tbaa !24
  %14 = getelementptr inbounds nuw i8, ptr %0, i64 48
  %15 = tail call i32 @ff_network_wait_fd_timeout(i32 noundef %11, i32 noundef 1, i64 noundef %13, ptr noundef nonnull %14) #12
  %.not14 = icmp eq i32 %15, 0
  br i1 %.not14, label %16, label %27

16:                                               ; preds = %9, %3
  %17 = getelementptr inbounds nuw i8, ptr %5, i64 8
  %18 = load i32, ptr %17, align 8, !tbaa !45
  %19 = sext i32 %2 to i64
  %20 = tail call i64 @send(i32 noundef %18, ptr noundef %1, i64 noundef %19, i32 noundef 16384) #12
  %21 = trunc i64 %20 to i32
  %22 = icmp slt i32 %21, 0
  br i1 %22, label %23, label %27

23:                                               ; preds = %16
  %24 = tail call ptr @__errno_location() #14
  %25 = load i32, ptr %24, align 4, !tbaa !4
  %26 = sub nsw i32 0, %25
  br label %27

27:                                               ; preds = %23, %16, %9
  %.0 = phi i32 [ %15, %9 ], [ %26, %23 ], [ %21, %16 ]
  ret i32 %.0
}